target datalayout = "e-m:e-p270:32:32-p271:32:32-p272:64:64-i64:64-i128:128-f80:128-n8:16:32:64-S128"
target triple = "x86_64-unknown-linux-gnu"

%"class.rocksdb::Slice" = type { ptr, i64 }
%"class.rocksdb::CuckooTableIterator" = type { %"class.rocksdb::InternalIteratorBase", %"struct.rocksdb::CuckooTableIterator::BucketComparator", ptr, i8, %"class.std::vector.108", i32, %"class.rocksdb::Slice", %"class.rocksdb::IterKey" }
%"class.rocksdb::InternalIteratorBase" = type { ptr, %"class.rocksdb::Cleanable" }
%"class.rocksdb::Cleanable" = type { %"struct.rocksdb::Cleanable::Cleanup" }
%"struct.rocksdb::Cleanable::Cleanup" = type { ptr, ptr, ptr, ptr }
%"struct.rocksdb::CuckooTableIterator::BucketComparator" = type { %"class.rocksdb::Slice", ptr, i32, i32, %"class.rocksdb::Slice" }
%"class.std::vector.108" = type { %"struct.std::_Vector_base.109" }
%"struct.std::_Vector_base.109" = type { %"struct.std::_Vector_base<unsigned int, std::allocator<unsigned int>>::_Vector_impl" }
%"struct.std::_Vector_base<unsigned int, std::allocator<unsigned int>>::_Vector_impl" = type { %"struct.std::_Vector_base<unsigned int, std::allocator<unsigned int>>::_Vector_impl_data" }
%"struct.std::_Vector_base<unsigned int, std::allocator<unsigned int>>::_Vector_impl_data" = type { ptr, ptr, ptr }
%"class.rocksdb::IterKey" = type { ptr, ptr, i64, i64, [39 x i8], i8 }

@.str.11 = private unnamed_addr constant [1 x i8] zeroinitializer, align 1

; Function Attrs: mustprogress nounwind uwtable
define linkonce_odr void @_ZN7rocksdb7IterKey5ClearEv(ptr noundef nonnull align 8 dereferenceable(72) %this) #1 comdat align 2 {
entry:
  %this.addr = alloca ptr, align 8
  store ptr %this, ptr %this.addr, align 8
  %this1 = load ptr, ptr %this.addr, align 8
  %key_size_ = getelementptr inbounds %"class.rocksdb::IterKey", ptr %this1, i32 0, i32 2
  store i64 0, ptr %key_size_, align 8
  ret void
}

; Function Attrs: mustprogress nounwind uwtable
define linkonce_odr void @_ZN7rocksdb5Slice5clearEv(ptr noundef nonnull align 8 dereferenceable(16) %this) #1 comdat align 2 {
entry:
  %this.addr = alloca ptr, align 8
  store ptr %this, ptr %this.addr, align 8
  %this1 = load ptr, ptr %this.addr, align 8
  %data_ = getelementptr inbounds %"class.rocksdb::Slice", ptr %this1, i32 0, i32 0
  store ptr @.str.11, ptr %data_, align 8
  %size_ = getelementptr inbounds %"class.rocksdb::Slice", ptr %this1, i32 0, i32 1
  store i64 0, ptr %size_, align 8
  ret void
}

; Function Attrs: mustprogress nounwind uwtable
define linkonce_odr noundef i64 @_ZNKSt6vectorIjSaIjEE4sizeEv(ptr noundef nonnull align 8 dereferenceable(24) %this) #1 comdat align 2 {
entry:
  %this.addr = alloca ptr, align 8
  store ptr %this, ptr %this.addr, align 8
  %this1 = load ptr, ptr %this.addr, align 8
  %_M_impl = getelementptr inbounds %"struct.std::_Vector_base.109", ptr %this1, i32 0, i32 0
  %_M_finish = getelementptr inbounds %"struct.std::_Vector_base<unsigned int, std::allocator<unsigned int>>::_Vector_impl_data", ptr %_M_impl, i32 0, i32 1
  %0 = load ptr, ptr %_M_finish, align 8
  %_M_impl2 = getelementptr inbounds %"struct.std::_Vector_base.109", ptr %this1, i32 0, i32 0
  %_M_start = getelementptr inbounds %"struct.std::_Vector_base<unsigned int, std::allocator<unsigned int>>::_Vector_impl_data", ptr %_M_impl2, i32 0, i32 0
  %1 = load ptr, ptr %_M_start, align 8
  %sub.ptr.lhs.cast = ptrtoint ptr %0 to i64
  %sub.ptr.rhs.cast = ptrtoint ptr %1 to i64
  %sub.ptr.sub = sub i64 %sub.ptr.lhs.cast, %sub.ptr.rhs.cast
  %sub.ptr.div = sdiv exact i64 %sub.ptr.sub, 4
  ret i64 %sub.ptr.div
}

; Function Attrs: mustprogress uwtable
define void @_ZN7rocksdb19CuckooTableIterator4PrevEv(ptr noundef nonnull align 8 dereferenceable(224) %this) unnamed_addr #0 align 2 {
entry:
  %this.addr = alloca ptr, align 8
  store ptr %this, ptr %this.addr, align 8
  %this1 = load ptr, ptr %this.addr, align 8
  %curr_key_idx_ = getelementptr inbounds %"class.rocksdb::CuckooTableIterator", ptr %this1, i32 0, i32 5
  %0 = load i32, ptr %curr_key_idx_, align 8
  %cmp = icmp eq i32 %0, 0
  br i1 %cmp, label %if.then, label %if.end

if.then:                                          ; preds = %entry
  %sorted_bucket_ids_ = getelementptr inbounds %"class.rocksdb::CuckooTableIterator", ptr %this1, i32 0, i32 4
  %call = call noundef i64 @_ZNKSt6vectorIjSaIjEE4sizeEv(ptr noundef nonnull align 8 dereferenceable(24) %sorted_bucket_ids_) #3
  %conv = trunc i64 %call to i32
  %curr_key_idx_2 = getelementptr inbounds %"class.rocksdb::CuckooTableIterator", ptr %this1, i32 0, i32 5
  store i32 %conv, ptr %curr_key_idx_2, align 8
  br label %if.end

if.end:                                           ; preds = %if.then, %entry
  %vtable = load ptr, ptr %this1, align 8
  %vfn = getelementptr inbounds ptr, ptr %vtable, i64 3
  %1 = load ptr, ptr %vfn, align 8
  %call3 = call noundef zeroext i1 %1(ptr noundef nonnull align 8 dereferenceable(224) %this1)
  br i1 %call3, label %if.end5, label %if.then4

if.then4:                                         ; preds = %if.end
  %curr_value_ = getelementptr inbounds %"class.rocksdb::CuckooTableIterator", ptr %this1, i32 0, i32 6
  call void @_ZN7rocksdb5Slice5clearEv(ptr noundef nonnull align 8 dereferenceable(16) %curr_value_)
  %curr_key_ = getelementptr inbounds %"class.rocksdb::CuckooTableIterator", ptr %this1, i32 0, i32 7
  call void @_ZN7rocksdb7IterKey5ClearEv(ptr noundef nonnull align 8 dereferenceable(72) %curr_key_)
  br label %return

if.end5:                                          ; preds = %if.end
  %curr_key_idx_6 = getelementptr inbounds %"class.rocksdb::CuckooTableIterator", ptr %this1, i32 0, i32 5
  %2 = load i32, ptr %curr_key_idx_6, align 8
  %dec = add i32 %2, -1
  store i32 %dec, ptr %curr_key_idx_6, align 8
  call void @_ZN7rocksdb19CuckooTableIterator18PrepareKVAtCurrIdxEv(ptr noundef nonnull align 8 dereferenceable(224) %this1)
  br label %return

return:                                           ; preds = %if.end5, %if.then4
  ret void
}