; Function Attrs: mustprogress uwtable
define void @_ZN7rocksdb19CuckooTableIterator4PrevEv(ptr noundef nonnull align 8 dereferenceable(224) %this) unnamed_addr #2 align 2 {
entry:
  %curr_key_idx_ = getelementptr inbounds i8, ptr %this, i64 128
  %0 = load i32, ptr %curr_key_idx_, align 8
  %cmp = icmp eq i32 %0, 0
  br i1 %cmp, label %if.then, label %if.end

if.then:                                          ; preds = %entry
  %sorted_bucket_ids_ = getelementptr inbounds i8, ptr %this, i64 104
  %_M_finish.i = getelementptr inbounds i8, ptr %this, i64 112
  %1 = load ptr, ptr %_M_finish.i, align 8
  %2 = load ptr, ptr %sorted_bucket_ids_, align 8
  %sub.ptr.lhs.cast.i = ptrtoint ptr %1 to i64
  %sub.ptr.rhs.cast.i = ptrtoint ptr %2 to i64
  %sub.ptr.sub.i = sub i64 %sub.ptr.lhs.cast.i, %sub.ptr.rhs.cast.i
  %sub.ptr.div.i = lshr exact i64 %sub.ptr.sub.i, 2
  %conv = trunc i64 %sub.ptr.div.i to i32
  store i32 %conv, ptr %curr_key_idx_, align 8
  br label %if.end

if.end:                                           ; preds = %if.then, %entry
  %vtable = load ptr, ptr %this, align 8
  %vfn = getelementptr inbounds i8, ptr %vtable, i64 24
  %3 = load ptr, ptr %vfn, align 8
  %call3 = tail call noundef zeroext i1 %3(ptr noundef nonnull align 8 dereferenceable(224) %this)
  br i1 %call3, label %if.end5, label %if.then4

if.then4:                                         ; preds = %if.end
  %curr_value_ = getelementptr inbounds i8, ptr %this, i64 136
  store ptr @.str.11, ptr %curr_value_, align 8
  %size_.i = getelementptr inbounds i8, ptr %this, i64 144
  store i64 0, ptr %size_.i, align 8
  %key_size_.i = getelementptr inbounds i8, ptr %this, i64 168
  store i64 0, ptr %key_size_.i, align 8
  br label %return

if.end5:                                          ; preds = %if.end
  %4 = load i32, ptr %curr_key_idx_, align 8
  %dec = add i32 %4, -1
  store i32 %dec, ptr %curr_key_idx_, align 8
  tail call void @_ZN7rocksdb19CuckooTableIterator18PrepareKVAtCurrIdxEv(ptr noundef nonnull align 8 dereferenceable(224) %this)
  br label %return

return:                                           ; preds = %if.end5, %if.then4
  ret void
}